target datalayout = "e-m:e-p270:32:32-p271:32:32-p272:64:64-i64:64-i128:128-f80:128-n8:16:32:64-S128"
target triple = "x86_64-pc-linux-gnu"

%struct.evp_pkey_st = type { i32, i32, ptr, ptr, ptr, %union.legacy_pkey_st, %union.legacy_pkey_st, %struct.CRYPTO_REF_COUNT, ptr, ptr, i32, i8, %struct.crypto_ex_data_st, ptr, ptr, i64, ptr, i64, %struct.anon }
%union.legacy_pkey_st = type { ptr }
%struct.CRYPTO_REF_COUNT = type { i32 }
%struct.crypto_ex_data_st = type { ptr, ptr }
%struct.anon = type { i32, i32, i32 }
%struct.asn1_string_st = type { i32, i32, ptr, i64 }

@.str = private unnamed_addr constant [30 x i8] c"../openssl/crypto/evp/p_lib.c\00", align 1
@__func__.EVP_PKEY_get0_siphash = private unnamed_addr constant [22 x i8] c"EVP_PKEY_get0_siphash\00", align 1

; Function Attrs: nounwind uwtable
define ptr @EVP_PKEY_get0_siphash(ptr noundef %0, ptr noundef %1) #0 {
  %3 = alloca ptr, align 8
  %4 = alloca ptr, align 8
  %5 = alloca ptr, align 8
  %6 = alloca ptr, align 8
  %7 = alloca i32, align 4
  store ptr %0, ptr %4, align 8, !tbaa !3
  store ptr %1, ptr %5, align 8, !tbaa !74
  call void @llvm.lifetime.start.p0(i64 8, ptr %6) #8
  store ptr null, ptr %6, align 8, !tbaa !97
  %8 = load ptr, ptr %4, align 8, !tbaa !3
  %9 = getelementptr inbounds nuw %struct.evp_pkey_st, ptr %8, i32 0, i32 0
  %10 = load i32, ptr %9, align 8, !tbaa !29
  %11 = icmp ne i32 %10, 1062
  br i1 %11, label %12, label %13

12:                                               ; preds = %2
  call void @ERR_new()
  call void @ERR_set_debug(ptr noundef @.str, i32 noundef 871, ptr noundef @__func__.EVP_PKEY_get0_siphash)
  call void (i32, i32, ptr, ...) @ERR_set_error(i32 noundef 6, i32 noundef 175, ptr noundef null)
  store ptr null, ptr %3, align 8
  store i32 1, ptr %7, align 4
  br label %28

13:                                               ; preds = %2
  %14 = load ptr, ptr %4, align 8, !tbaa !3
  %15 = call ptr @evp_pkey_get_legacy(ptr noundef %14)
  store ptr %15, ptr %6, align 8, !tbaa !97
  %16 = load ptr, ptr %6, align 8, !tbaa !97
  %17 = icmp ne ptr %16, null
  br i1 %17, label %18, label %27

18:                                               ; preds = %13
  %19 = load ptr, ptr %6, align 8, !tbaa !97
  %20 = getelementptr inbounds nuw %struct.asn1_string_st, ptr %19, i32 0, i32 0
  %21 = load i32, ptr %20, align 8, !tbaa !99
  %22 = sext i32 %21 to i64
  %23 = load ptr, ptr %5, align 8, !tbaa !74
  store i64 %22, ptr %23, align 8, !tbaa !68
  %24 = load ptr, ptr %6, align 8, !tbaa !97
  %25 = getelementptr inbounds nuw %struct.asn1_string_st, ptr %24, i32 0, i32 2
  %26 = load ptr, ptr %25, align 8, !tbaa !101
  store ptr %26, ptr %3, align 8
  store i32 1, ptr %7, align 4
  br label %28

27:                                               ; preds = %13
  store ptr null, ptr %3, align 8
  store i32 1, ptr %7, align 4
  br label %28

28:                                               ; preds = %27, %18, %12
  call void @llvm.lifetime.end.p0(i64 8, ptr %6) #8
  %29 = load ptr, ptr %3, align 8
  ret ptr %29
}